target datalayout = "e-m:e-p270:32:32-p271:32:32-p272:64:64-i64:64-i128:128-f80:128-n8:16:32:64-S128"
target triple = "x86_64-pc-linux-gnu"

%struct._capture_file = type { ptr, i32, ptr, ptr, i8, i8, i8, i64, i16, i32, i32, i32, ptr, i32, i64, i32, i32, i32, i32, i8, i32, %struct.nstime_t, i32, ptr, ptr, ptr, i8, i8, i32, ptr, i8, i8, i8, i8, i8, i32, i32, i8, ptr, i32, i32, i8, %struct.packet_provider_data, i32, i32, %struct.epan_column_info, ptr, ptr, ptr, %struct.wtap_rec, %struct.Buffer, ptr, i64, i32 }
%struct.nstime_t = type { i64, i32 }
%struct.packet_provider_data = type { ptr, ptr, ptr, ptr, ptr, ptr }
%struct.epan_column_info = type { ptr, i32, ptr, ptr, ptr, %struct.col_expr_t, i8, ptr }
%struct.col_expr_t = type { ptr, ptr }
%struct.wtap_rec = type { i32, i32, i32, %struct.nstime_t, i32, %struct.nstime_t, i8, %union.anon, ptr, i8, %struct.Buffer, %struct.Buffer }
%union.anon = type { %struct.wtap_packet_header }
%struct.wtap_packet_header = type { i32, i32, i32, i32, %union.wtap_pseudo_header }
%union.wtap_pseudo_header = type { %struct.erf_mc_phdr }
%struct.erf_mc_phdr = type { %struct.erf_phdr, [16 x %struct.erf_ehdr], %union.anon.1 }
%struct.erf_phdr = type { i64, i8, i8, i16, i16, i16 }
%struct.erf_ehdr = type { i64 }
%union.anon.1 = type { i32 }
%struct.Buffer = type { ptr, i64, i64, i64 }
%struct.epan_dissect = type { ptr, ptr, ptr, %struct._packet_info }
%struct._packet_info = type { ptr, ptr, i32, i32, %struct.nstime_t, %struct.nstime_t, %struct.nstime_t, i8, ptr, ptr, ptr, ptr, %struct._address, %struct._address, %struct._address, %struct._address, %struct._address, %struct._address, i32, ptr, i8, [3 x i8], %struct.anon.3, i32, i32, i32, i32, ptr, i8, ptr, ptr, i16, i16, i32, i32, i16, i32, i32, ptr, ptr, ptr, i8, i8, i16, i16, i16, i32, i16, i16, ptr, ptr, ptr, ptr, ptr, i32, i32 }
%struct._address = type { i32, i32, ptr, ptr }
%struct.anon.3 = type { i8, [3 x i8] }
%struct.retap_callback_args_t = type { %struct.epan_dissect, ptr }

; Function Attrs: null_pointer_is_valid sspstrong uwtable
define internal zeroext i1 @retap_packet(ptr noundef %0, ptr noundef %1, ptr noundef %2, ptr noundef %3) #1 {
  %5 = alloca ptr, align 8
  %6 = alloca ptr, align 8
  %7 = alloca ptr, align 8
  %8 = alloca ptr, align 8
  %9 = alloca ptr, align 8
  store ptr %0, ptr %5, align 8
  store ptr %1, ptr %6, align 8
  store ptr %2, ptr %7, align 8
  store ptr %3, ptr %8, align 8
  call void @llvm.lifetime.start.p0(i64 8, ptr %9) #19
  %10 = load ptr, ptr %8, align 8
  store ptr %10, ptr %9, align 8
  %11 = load ptr, ptr %9, align 8
  %12 = getelementptr inbounds nuw %struct.retap_callback_args_t, ptr %11, i32 0, i32 0
  %13 = load ptr, ptr %5, align 8
  %14 = getelementptr inbounds nuw %struct._capture_file, ptr %13, i32 0, i32 8
  %15 = load i16, ptr %14, align 8
  %16 = zext i16 %15 to i32
  %17 = load ptr, ptr %7, align 8
  %18 = load ptr, ptr %6, align 8
  %19 = load ptr, ptr %9, align 8
  %20 = getelementptr inbounds nuw %struct.retap_callback_args_t, ptr %19, i32 0, i32 1
  %21 = load ptr, ptr %20, align 8
  call void @epan_dissect_run_with_taps(ptr noundef %12, i32 noundef %16, ptr noundef %17, ptr noundef %18, ptr noundef %21)
  %22 = load ptr, ptr %9, align 8
  %23 = getelementptr inbounds nuw %struct.retap_callback_args_t, ptr %22, i32 0, i32 0
  call void @epan_dissect_reset(ptr noundef %23)
  call void @llvm.lifetime.end.p0(i64 8, ptr %9) #19
  ret i1 true
}