; Function Attrs: null_pointer_is_valid sspstrong uwtable
define internal noundef zeroext i1 @retap_packet(ptr noundef readonly captures(none) %0, ptr noundef %1, ptr noundef %2, ptr noundef %3) #1 {
  %5 = getelementptr inbounds nuw i8, ptr %0, i64 48
  %6 = load i16, ptr %5, align 8
  %7 = zext i16 %6 to i32
  %8 = getelementptr inbounds nuw i8, ptr %3, i64 464
  %9 = load ptr, ptr %8, align 8
  tail call void @epan_dissect_run_with_taps(ptr noundef %3, i32 noundef %7, ptr noundef %2, ptr noundef %1, ptr noundef %9)
  tail call void @epan_dissect_reset(ptr noundef %3)
  ret i1 true
}